; ModuleID = '23/151.c'
source_filename = "23/151.c"
target datalayout = "e-m:e-p270:32:32-p271:32:32-p272:64:64-i64:64-f80:128-n8:16:32:64-S128"
target triple = "x86_64-pc-linux-gnu"

@.str = private unnamed_addr constant [3 x i8] c"%s\00", align 1
@.str.1 = private unnamed_addr constant [4 x i8] c" %s\00", align 1

; Function Attrs: noinline nounwind uwtable
define dso_local i32 @main() #0 {
  %1 = alloca i32, align 4
  %2 = alloca i32, align 4
  %3 = alloca [50 x [40 x i8]], align 16
  %4 = alloca [50 x i8], align 16
  %5 = alloca i32, align 4
  store i32 0, i32* %1, align 4
  store i32 0, i32* %2, align 4
  br label %6

6:                                                ; preds = %10, %0
  %7 = getelementptr inbounds [50 x i8], [50 x i8]* %4, i64 0, i64 0
  %8 = call i32 (i8*, ...) @__isoc99_scanf(i8* getelementptr inbounds ([3 x i8], [3 x i8]* @.str, i64 0, i64 0), i8* %7)
  %9 = icmp ne i32 %8, -1
  br i1 %9, label %10, label %19

10:                                               ; preds = %6
  %11 = load i32, i32* %2, align 4
  %12 = sext i32 %11 to i64
  %13 = getelementptr inbounds [50 x [40 x i8]], [50 x [40 x i8]]* %3, i64 0, i64 %12
  %14 = getelementptr inbounds [40 x i8], [40 x i8]* %13, i64 0, i64 0
  %15 = getelementptr inbounds [50 x i8], [50 x i8]* %4, i64 0, i64 0
  %16 = call i8* @strcpy(i8* %14, i8* %15) #3
  %17 = load i32, i32* %2, align 4
  %18 = add nsw i32 %17, 1
  store i32 %18, i32* %2, align 4
  br label %6

19:                                               ; preds = %6
  %20 = load i32, i32* %2, align 4
  %21 = sub nsw i32 %20, 1
  %22 = sext i32 %21 to i64
  %23 = getelementptr inbounds [50 x [40 x i8]], [50 x [40 x i8]]* %3, i64 0, i64 %22
  %24 = getelementptr inbounds [40 x i8], [40 x i8]* %23, i64 0, i64 0
  %25 = call i32 (i8*, ...) @printf(i8* getelementptr inbounds ([3 x i8], [3 x i8]* @.str, i64 0, i64 0), i8* %24)
  %26 = load i32, i32* %2, align 4
  %27 = sub nsw i32 %26, 2
  store i32 %27, i32* %5, align 4
  br label %28

28:                                               ; preds = %37, %19
  %29 = load i32, i32* %5, align 4
  %30 = icmp sge i32 %29, 0
  br i1 %30, label %31, label %40

31:                                               ; preds = %28
  %32 = load i32, i32* %5, align 4
  %33 = sext i32 %32 to i64
  %34 = getelementptr inbounds [50 x [40 x i8]], [50 x [40 x i8]]* %3, i64 0, i64 %33
  %35 = getelementptr inbounds [40 x i8], [40 x i8]* %34, i64 0, i64 0
  %36 = call i32 (i8*, ...) @printf(i8* getelementptr inbounds ([4 x i8], [4 x i8]* @.str.1, i64 0, i64 0), i8* %35)
  br label %37

37:                                               ; preds = %31
  %38 = load i32, i32* %5, align 4
  %39 = add nsw i32 %38, -1
  store i32 %39, i32* %5, align 4
  br label %28

40:                                               ; preds = %28
  %41 = load i32, i32* %1, align 4
  ret i32 %41
}

declare dso_local i32 @__isoc99_scanf(i8*, ...) #1

; Function Attrs: nounwind
declare dso_local i8* @strcpy(i8*, i8*) #2

declare dso_local i32 @printf(i8*, ...) #1


!llvm.module.flags = !{!0}
!llvm.ident = !{!1}

!0 = !{i32 1, !"wchar_size", i32 4}
!1 = !{!"clang version 10.0.0-4ubuntu1 "}
