; ModuleID = 'source-C-CXX/22/151.c'
source_filename = "source-C-CXX/22/151.c"
target datalayout = "e-m:e-p270:32:32-p271:32:32-p272:64:64-i64:64-f80:128-n8:16:32:64-S128"
target triple = "x86_64-pc-linux-gnu"

@.str = private unnamed_addr constant [3 x i8] c"%s\00", align 1
@.str.1 = private unnamed_addr constant [4 x i8] c" %s\00", align 1

; Function Attrs: nofree nounwind sspstrong uwtable
define dso_local i32 @main() local_unnamed_addr #0 {
  %1 = alloca [50 x [40 x i8]], align 16
  %2 = alloca [50 x i8], align 16
  %3 = getelementptr inbounds [50 x [40 x i8]], [50 x [40 x i8]]* %1, i64 0, i64 0, i64 0
  call void @llvm.lifetime.start.p0i8(i64 2000, i8* nonnull %3) #4
  %4 = getelementptr inbounds [50 x i8], [50 x i8]* %2, i64 0, i64 0
  call void @llvm.lifetime.start.p0i8(i64 50, i8* nonnull %4) #4
  %5 = call i32 (i8*, ...) @__isoc99_scanf(i8* getelementptr inbounds ([3 x i8], [3 x i8]* @.str, i64 0, i64 0), i8* nonnull %4)
  %6 = icmp eq i32 %5, -1
  br i1 %6, label %16, label %7

7:                                                ; preds = %0, %7
  %8 = phi i64 [ %11, %7 ], [ 0, %0 ]
  %9 = getelementptr inbounds [50 x [40 x i8]], [50 x [40 x i8]]* %1, i64 0, i64 %8, i64 0
  %10 = call i8* @strcpy(i8* noundef nonnull %9, i8* noundef nonnull %4) #4
  %11 = add nuw i64 %8, 1
  %12 = call i32 (i8*, ...) @__isoc99_scanf(i8* getelementptr inbounds ([3 x i8], [3 x i8]* @.str, i64 0, i64 0), i8* nonnull %4)
  %13 = icmp eq i32 %12, -1
  br i1 %13, label %14, label %7, !llvm.loop !5

14:                                               ; preds = %7
  %15 = trunc i64 %11 to i32
  br label %16

16:                                               ; preds = %14, %0
  %17 = phi i32 [ 0, %0 ], [ %15, %14 ]
  %18 = add nsw i32 %17, -1
  %19 = sext i32 %18 to i64
  %20 = getelementptr inbounds [50 x [40 x i8]], [50 x [40 x i8]]* %1, i64 0, i64 %19, i64 0
  %21 = call i32 (i8*, ...) @printf(i8* nonnull dereferenceable(1) getelementptr inbounds ([3 x i8], [3 x i8]* @.str, i64 0, i64 0), i8* nonnull %20)
  %22 = icmp sgt i32 %17, 1
  br i1 %22, label %23, label %32

23:                                               ; preds = %16
  %24 = add nsw i32 %17, -2
  %25 = zext i32 %24 to i64
  br label %26

26:                                               ; preds = %23, %26
  %27 = phi i64 [ %25, %23 ], [ %31, %26 ]
  %28 = getelementptr inbounds [50 x [40 x i8]], [50 x [40 x i8]]* %1, i64 0, i64 %27, i64 0
  %29 = call i32 (i8*, ...) @printf(i8* nonnull dereferenceable(1) getelementptr inbounds ([4 x i8], [4 x i8]* @.str.1, i64 0, i64 0), i8* nonnull %28)
  %30 = icmp sgt i64 %27, 0
  %31 = add nsw i64 %27, -1
  br i1 %30, label %26, label %32, !llvm.loop !7

32:                                               ; preds = %26, %16
  call void @llvm.lifetime.end.p0i8(i64 50, i8* nonnull %4) #4
  call void @llvm.lifetime.end.p0i8(i64 2000, i8* nonnull %3) #4
  ret i32 0
}

; Function Attrs: argmemonly mustprogress nofree nosync nounwind willreturn
declare void @llvm.lifetime.start.p0i8(i64 immarg, i8* nocapture) #1

; Function Attrs: nofree nounwind
declare noundef i32 @__isoc99_scanf(i8* nocapture noundef readonly, ...) local_unnamed_addr #2

; Function Attrs: argmemonly mustprogress nofree nounwind willreturn
declare i8* @strcpy(i8* noalias returned writeonly, i8* noalias nocapture readonly) local_unnamed_addr #3

; Function Attrs: nofree nounwind
declare noundef i32 @printf(i8* nocapture noundef readonly, ...) local_unnamed_addr #2

; Function Attrs: argmemonly mustprogress nofree nosync nounwind willreturn
declare void @llvm.lifetime.end.p0i8(i64 immarg, i8* nocapture) #1


!llvm.module.flags = !{!0, !1, !2, !3}
!llvm.ident = !{!4}

!0 = !{i32 1, !"wchar_size", i32 4}
!1 = !{i32 7, !"PIC Level", i32 2}
!2 = !{i32 7, !"PIE Level", i32 2}
!3 = !{i32 7, !"uwtable", i32 1}
!4 = !{!"clang version 13.0.0"}
!5 = distinct !{!5, !6}
!6 = !{!"llvm.loop.mustprogress"}
!7 = distinct !{!7, !6}
